target datalayout = "e-m:e-p270:32:32-p271:32:32-p272:64:64-i64:64-i128:128-f80:128-n8:16:32:64-S128"
target triple = "x86_64-pc-linux-gnu"

%"class.clang::LazyASTUnresolvedSet" = type { %"class.clang::ASTUnresolvedSet" }
%"class.clang::ASTUnresolvedSet" = type { %"struct.clang::ASTUnresolvedSet::DeclsTy" }
%"struct.clang::ASTUnresolvedSet::DeclsTy" = type { %"class.clang::ASTVector" }
%"class.clang::ASTVector" = type { ptr, ptr, %"class.llvm::PointerIntPair.343" }
%"class.llvm::PointerIntPair.343" = type { %"struct.llvm::detail::PunnedPointer.344" }
%"struct.llvm::detail::PunnedPointer.344" = type { [8 x i8] }
%"struct.clang::CXXRecordDecl::DefinitionData" = type { i64, i32, i32, i32, i32, %"struct.clang::LazyOffsetPtr", %"struct.clang::LazyOffsetPtr", %"class.clang::LazyASTUnresolvedSet", %"class.clang::LazyASTUnresolvedSet", ptr, %"struct.clang::LazyOffsetPtr.346" }
%"struct.clang::LazyOffsetPtr" = type { i64 }
%"struct.clang::LazyOffsetPtr.346" = type { i64 }

; Function Attrs: mustprogress nounwind uwtable
define linkonce_odr hidden noundef ptr @_ZN4llvm21PointerLikeTypeTraitsIPN5clang14DeclAccessPairEE16getAsVoidPointerES3_(ptr noundef %0) #0 comdat align 2 {
  %2 = alloca ptr, align 8
  store ptr %0, ptr %2, align 8
  %3 = load ptr, ptr %2, align 8
  ret ptr %3
}

; Function Attrs: mustprogress nounwind uwtable
define linkonce_odr hidden noundef i64 @_ZN4llvm18PointerIntPairInfoIPN5clang14DeclAccessPairELj1ENS_21PointerLikeTypeTraitsIS3_EEE9updateIntEll(i64 noundef %0, i64 noundef %1) #0 comdat align 2 {
  %3 = alloca i64, align 8
  %4 = alloca i64, align 8
  %5 = alloca i64, align 8
  store i64 %0, ptr %3, align 8
  store i64 %1, ptr %4, align 8
  %6 = load i64, ptr %4, align 8
  store i64 %6, ptr %5, align 8
  %7 = load i64, ptr %3, align 8
  %8 = and i64 %7, -5
  %9 = load i64, ptr %5, align 8
  %10 = shl i64 %9, 2
  %11 = or i64 %8, %10
  ret i64 %11
}

; Function Attrs: mustprogress nounwind uwtable
define linkonce_odr hidden noundef i64 @_ZN4llvm18PointerIntPairInfoIPN5clang14DeclAccessPairELj1ENS_21PointerLikeTypeTraitsIS3_EEE13updatePointerElS3_(i64 noundef %0, ptr noundef %1) #0 comdat align 2 {
  %3 = alloca i64, align 8
  %4 = alloca ptr, align 8
  %5 = alloca i64, align 8
  store i64 %0, ptr %3, align 8
  store ptr %1, ptr %4, align 8
  %6 = load ptr, ptr %4, align 8
  %7 = call noundef ptr @_ZN4llvm21PointerLikeTypeTraitsIPN5clang14DeclAccessPairEE16getAsVoidPointerES3_(ptr noundef %6)
  %8 = ptrtoint ptr %7 to i64
  store i64 %8, ptr %5, align 8
  %9 = load i64, ptr %5, align 8
  %10 = load i64, ptr %3, align 8
  %11 = and i64 %10, 7
  %12 = or i64 %9, %11
  ret i64 %12
}

; Function Attrs: mustprogress nounwind uwtable
define linkonce_odr hidden noundef nonnull align 8 dereferenceable(8) ptr @_ZN4llvm6detail13PunnedPointerIPN5clang14DeclAccessPairEEaSEl(ptr noundef nonnull align 8 dereferenceable(8) %0, i64 noundef %1) #0 comdat align 2 {
  %3 = alloca ptr, align 8
  %4 = alloca i64, align 8
  store ptr %0, ptr %3, align 8
  store i64 %1, ptr %4, align 8
  %5 = load ptr, ptr %3, align 8
  %6 = getelementptr inbounds nuw %"struct.llvm::detail::PunnedPointer.344", ptr %5, i32 0, i32 0
  %7 = getelementptr inbounds [8 x i8], ptr %6, i64 0, i64 0
  call void @llvm.memcpy.p0.p0.i64(ptr align 8 %7, ptr align 8 %4, i64 8, i1 false)
  ret ptr %5
}

; Function Attrs: mustprogress nounwind uwtable
define linkonce_odr hidden void @_ZNR4llvm14PointerIntPairIPN5clang14DeclAccessPairELj1EbNS_21PointerLikeTypeTraitsIS3_EENS_18PointerIntPairInfoIS3_Lj1ES5_EEE16setPointerAndIntES3_b(ptr noundef nonnull align 8 dereferenceable(8) %0, ptr noundef %1, i1 noundef zeroext %2) #0 comdat align 2 {
  %4 = alloca ptr, align 8
  %5 = alloca ptr, align 8
  %6 = alloca i8, align 1
  store ptr %0, ptr %4, align 8
  store ptr %1, ptr %5, align 8
  %7 = zext i1 %2 to i8
  store i8 %7, ptr %6, align 1
  %8 = load ptr, ptr %4, align 8
  %9 = load ptr, ptr %5, align 8
  %10 = call noundef i64 @_ZN4llvm18PointerIntPairInfoIPN5clang14DeclAccessPairELj1ENS_21PointerLikeTypeTraitsIS3_EEE13updatePointerElS3_(i64 noundef 0, ptr noundef %9)
  %11 = load i8, ptr %6, align 1
  %12 = trunc i8 %11 to i1
  %13 = zext i1 %12 to i64
  %14 = call noundef i64 @_ZN4llvm18PointerIntPairInfoIPN5clang14DeclAccessPairELj1ENS_21PointerLikeTypeTraitsIS3_EEE9updateIntEll(i64 noundef %10, i64 noundef %13)
  %15 = getelementptr inbounds nuw %"class.llvm::PointerIntPair.343", ptr %8, i32 0, i32 0
  %16 = call noundef nonnull align 8 dereferenceable(8) ptr @_ZN4llvm6detail13PunnedPointerIPN5clang14DeclAccessPairEEaSEl(ptr noundef nonnull align 8 dereferenceable(8) %15, i64 noundef %14)
  ret void
}

; Function Attrs: mustprogress nounwind uwtable
define linkonce_odr hidden void @_ZN4llvm6detail13PunnedPointerIPN5clang14DeclAccessPairEEC2El(ptr noundef nonnull align 8 dereferenceable(8) %0, i64 noundef %1) unnamed_addr #0 comdat align 2 {
  %3 = alloca ptr, align 8
  %4 = alloca i64, align 8
  store ptr %0, ptr %3, align 8
  store i64 %1, ptr %4, align 8
  %5 = load ptr, ptr %3, align 8
  %6 = load i64, ptr %4, align 8
  %7 = call noundef nonnull align 8 dereferenceable(8) ptr @_ZN4llvm6detail13PunnedPointerIPN5clang14DeclAccessPairEEaSEl(ptr noundef nonnull align 8 dereferenceable(8) %5, i64 noundef %6)
  ret void
}

; Function Attrs: mustprogress nounwind uwtable
define linkonce_odr hidden void @_ZN4llvm14PointerIntPairIPN5clang14DeclAccessPairELj1EbNS_21PointerLikeTypeTraitsIS3_EENS_18PointerIntPairInfoIS3_Lj1ES5_EEEC2ES3_b(ptr noundef nonnull align 8 dereferenceable(8) %0, ptr noundef %1, i1 noundef zeroext %2) unnamed_addr #0 comdat align 2 {
  %4 = alloca ptr, align 8
  %5 = alloca ptr, align 8
  %6 = alloca i8, align 1
  store ptr %0, ptr %4, align 8
  store ptr %1, ptr %5, align 8
  %7 = zext i1 %2 to i8
  store i8 %7, ptr %6, align 1
  %8 = load ptr, ptr %4, align 8
  %9 = getelementptr inbounds nuw %"class.llvm::PointerIntPair.343", ptr %8, i32 0, i32 0
  call void @_ZN4llvm6detail13PunnedPointerIPN5clang14DeclAccessPairEEC2El(ptr noundef nonnull align 8 dereferenceable(8) %9, i64 noundef 0)
  %10 = load ptr, ptr %5, align 8
  %11 = load i8, ptr %6, align 1
  %12 = trunc i8 %11 to i1
  call void @_ZNR4llvm14PointerIntPairIPN5clang14DeclAccessPairELj1EbNS_21PointerLikeTypeTraitsIS3_EENS_18PointerIntPairInfoIS3_Lj1ES5_EEE16setPointerAndIntES3_b(ptr noundef nonnull align 8 dereferenceable(8) %8, ptr noundef %10, i1 noundef zeroext %12)
  ret void
}

; Function Attrs: mustprogress nounwind uwtable
define linkonce_odr hidden void @_ZN5clang9ASTVectorINS_14DeclAccessPairEEC2Ev(ptr noundef nonnull align 8 dereferenceable(24) %0) unnamed_addr #0 comdat align 2 {
  %2 = alloca ptr, align 8
  store ptr %0, ptr %2, align 8
  %3 = load ptr, ptr %2, align 8
  %4 = getelementptr inbounds nuw %"class.clang::ASTVector", ptr %3, i32 0, i32 0
  store ptr null, ptr %4, align 8
  %5 = getelementptr inbounds nuw %"class.clang::ASTVector", ptr %3, i32 0, i32 1
  store ptr null, ptr %5, align 8
  %6 = getelementptr inbounds nuw %"class.clang::ASTVector", ptr %3, i32 0, i32 2
  call void @_ZN4llvm14PointerIntPairIPN5clang14DeclAccessPairELj1EbNS_21PointerLikeTypeTraitsIS3_EENS_18PointerIntPairInfoIS3_Lj1ES5_EEEC2ES3_b(ptr noundef nonnull align 8 dereferenceable(8) %6, ptr noundef null, i1 noundef zeroext false)
  ret void
}

; Function Attrs: mustprogress nounwind uwtable
define linkonce_odr hidden void @_ZN5clang16ASTUnresolvedSet7DeclsTyC2Ev(ptr noundef nonnull align 8 dereferenceable(24) %0) unnamed_addr #0 comdat align 2 {
  %2 = alloca ptr, align 8
  store ptr %0, ptr %2, align 8
  %3 = load ptr, ptr %2, align 8
  call void @_ZN5clang9ASTVectorINS_14DeclAccessPairEEC2Ev(ptr noundef nonnull align 8 dereferenceable(24) %3)
  ret void
}

; Function Attrs: mustprogress nounwind uwtable
define linkonce_odr hidden void @_ZN5clang16ASTUnresolvedSetC2Ev(ptr noundef nonnull align 8 dereferenceable(24) %0) unnamed_addr #0 comdat align 2 {
  %2 = alloca ptr, align 8
  store ptr %0, ptr %2, align 8
  %3 = load ptr, ptr %2, align 8
  %4 = getelementptr inbounds nuw %"class.clang::ASTUnresolvedSet", ptr %3, i32 0, i32 0
  call void @_ZN5clang16ASTUnresolvedSet7DeclsTyC2Ev(ptr noundef nonnull align 8 dereferenceable(24) %4)
  ret void
}

; Function Attrs: mustprogress nounwind uwtable
define linkonce_odr hidden void @_ZN5clang13LazyOffsetPtrINS_4DeclENS_12GlobalDeclIDEXadL_ZNS_17ExternalASTSource15GetExternalDeclES2_EEEC2Ev(ptr noundef nonnull align 8 dereferenceable(8) %0) unnamed_addr #0 comdat align 2 {
  %2 = alloca ptr, align 8
  store ptr %0, ptr %2, align 8
  %3 = load ptr, ptr %2, align 8
  %4 = getelementptr inbounds nuw %"struct.clang::LazyOffsetPtr.346", ptr %3, i32 0, i32 0
  store i64 0, ptr %4, align 8
  ret void
}

; Function Attrs: mustprogress nounwind uwtable
define linkonce_odr hidden void @_ZN5clang20LazyASTUnresolvedSetC2Ev(ptr noundef nonnull align 8 dereferenceable(24) %0) unnamed_addr #0 comdat align 2 {
  %2 = alloca ptr, align 8
  store ptr %0, ptr %2, align 8
  %3 = load ptr, ptr %2, align 8
  %4 = getelementptr inbounds nuw %"class.clang::LazyASTUnresolvedSet", ptr %3, i32 0, i32 0
  call void @_ZN5clang16ASTUnresolvedSetC2Ev(ptr noundef nonnull align 8 dereferenceable(24) %4)
  ret void
}

; Function Attrs: mustprogress nounwind uwtable
define linkonce_odr hidden void @_ZN5clang13LazyOffsetPtrINS_16CXXBaseSpecifierEmXadL_ZNS_17ExternalASTSource28GetExternalCXXBaseSpecifiersEmEEEC2Ev(ptr noundef nonnull align 8 dereferenceable(8) %0) unnamed_addr #0 comdat align 2 {
  %2 = alloca ptr, align 8
  store ptr %0, ptr %2, align 8
  %3 = load ptr, ptr %2, align 8
  %4 = getelementptr inbounds nuw %"struct.clang::LazyOffsetPtr", ptr %3, i32 0, i32 0
  store i64 0, ptr %4, align 8
  ret void
}

; Function Attrs: mustprogress nounwind uwtable
define dso_local void @_ZN5clang13CXXRecordDecl14DefinitionDataC2EPS0_(ptr noundef nonnull align 8 dereferenceable(104) %0, ptr noundef %1) unnamed_addr #0 align 2 {
  %3 = alloca ptr, align 8
  %4 = alloca ptr, align 8
  store ptr %0, ptr %3, align 8
  store ptr %1, ptr %4, align 8
  %5 = load ptr, ptr %3, align 8
  %6 = load i64, ptr %5, align 8
  %7 = and i64 %6, -2
  %8 = or i64 %7, 0
  store i64 %8, ptr %5, align 8
  %9 = load i64, ptr %5, align 8
  %10 = and i64 %9, -127
  %11 = or i64 %10, 0
  store i64 %11, ptr %5, align 8
  %12 = load i64, ptr %5, align 8
  %13 = and i64 %12, -129
  %14 = or i64 %13, 128
  store i64 %14, ptr %5, align 8
  %15 = load i64, ptr %5, align 8
  %16 = and i64 %15, -257
  %17 = or i64 %16, 256
  store i64 %17, ptr %5, align 8
  %18 = load i64, ptr %5, align 8
  %19 = and i64 %18, -513
  %20 = or i64 %19, 512
  store i64 %20, ptr %5, align 8
  %21 = load i64, ptr %5, align 8
  %22 = and i64 %21, -1025
  %23 = or i64 %22, 0
  store i64 %23, ptr %5, align 8
  %24 = load i64, ptr %5, align 8
  %25 = and i64 %24, -2049
  %26 = or i64 %25, 0
  store i64 %26, ptr %5, align 8
  %27 = load i64, ptr %5, align 8
  %28 = and i64 %27, -4097
  %29 = or i64 %28, 4096
  store i64 %29, ptr %5, align 8
  %30 = load i64, ptr %5, align 8
  %31 = and i64 %30, -8193
  %32 = or i64 %31, 8192
  store i64 %32, ptr %5, align 8
  %33 = load i64, ptr %5, align 8
  %34 = and i64 %33, -16385
  %35 = or i64 %34, 0
  store i64 %35, ptr %5, align 8
  %36 = load i64, ptr %5, align 8
  %37 = and i64 %36, -32769
  %38 = or i64 %37, 0
  store i64 %38, ptr %5, align 8
  %39 = load i64, ptr %5, align 8
  %40 = and i64 %39, -65537
  %41 = or i64 %40, 0
  store i64 %41, ptr %5, align 8
  %42 = load i64, ptr %5, align 8
  %43 = and i64 %42, -131073
  %44 = or i64 %43, 0
  store i64 %44, ptr %5, align 8
  %45 = load i64, ptr %5, align 8
  %46 = and i64 %45, -262145
  %47 = or i64 %46, 0
  store i64 %47, ptr %5, align 8
  %48 = load i64, ptr %5, align 8
  %49 = and i64 %48, -524289
  %50 = or i64 %49, 0
  store i64 %50, ptr %5, align 8
  %51 = load i64, ptr %5, align 8
  %52 = and i64 %51, -1048577
  %53 = or i64 %52, 0
  store i64 %53, ptr %5, align 8
  %54 = load i64, ptr %5, align 8
  %55 = and i64 %54, -2097153
  %56 = or i64 %55, 2097152
  store i64 %56, ptr %5, align 8
  %57 = load i64, ptr %5, align 8
  %58 = and i64 %57, -4194305
  %59 = or i64 %58, 0
  store i64 %59, ptr %5, align 8
  %60 = load i64, ptr %5, align 8
  %61 = and i64 %60, -8388609
  %62 = or i64 %61, 0
  store i64 %62, ptr %5, align 8
  %63 = load i64, ptr %5, align 8
  %64 = and i64 %63, -16777217
  %65 = or i64 %64, 0
  store i64 %65, ptr %5, align 8
  %66 = load i64, ptr %5, align 8
  %67 = and i64 %66, -33554433
  %68 = or i64 %67, 0
  store i64 %68, ptr %5, align 8
  %69 = load i64, ptr %5, align 8
  %70 = and i64 %69, -67108865
  %71 = or i64 %70, 0
  store i64 %71, ptr %5, align 8
  %72 = load i64, ptr %5, align 8
  %73 = and i64 %72, -134217729
  %74 = or i64 %73, 0
  store i64 %74, ptr %5, align 8
  %75 = load i64, ptr %5, align 8
  %76 = and i64 %75, -268435457
  %77 = or i64 %76, 0
  store i64 %77, ptr %5, align 8
  %78 = load i64, ptr %5, align 8
  %79 = and i64 %78, -536870913
  %80 = or i64 %79, 0
  store i64 %80, ptr %5, align 8
  %81 = load i64, ptr %5, align 8
  %82 = and i64 %81, -1073741825
  %83 = or i64 %82, 0
  store i64 %83, ptr %5, align 8
  %84 = load i64, ptr %5, align 8
  %85 = and i64 %84, -2147483649
  %86 = or i64 %85, 0
  store i64 %86, ptr %5, align 8
  %87 = load i64, ptr %5, align 8
  %88 = and i64 %87, -4294967297
  %89 = or i64 %88, 0
  store i64 %89, ptr %5, align 8
  %90 = load i64, ptr %5, align 8
  %91 = and i64 %90, -8589934593
  %92 = or i64 %91, 0
  store i64 %92, ptr %5, align 8
  %93 = load i64, ptr %5, align 8
  %94 = and i64 %93, -17179869185
  %95 = or i64 %94, 0
  store i64 %95, ptr %5, align 8
  %96 = load i64, ptr %5, align 8
  %97 = and i64 %96, -34359738369
  %98 = or i64 %97, 0
  store i64 %98, ptr %5, align 8
  %99 = load i64, ptr %5, align 8
  %100 = and i64 %99, -68719476737
  %101 = or i64 %100, 0
  store i64 %101, ptr %5, align 8
  %102 = load i64, ptr %5, align 8
  %103 = and i64 %102, -137438953473
  %104 = or i64 %103, 0
  store i64 %104, ptr %5, align 8
  %105 = load i64, ptr %5, align 8
  %106 = and i64 %105, -274877906945
  %107 = or i64 %106, 0
  store i64 %107, ptr %5, align 8
  %108 = load i64, ptr %5, align 8
  %109 = and i64 %108, -34634616274945
  %110 = or i64 %109, 34634616274944
  store i64 %110, ptr %5, align 8
  %111 = load i64, ptr %5, align 8
  %112 = and i64 %111, -2216615441596417
  %113 = or i64 %112, 2216615441596416
  store i64 %113, ptr %5, align 8
  %114 = load i64, ptr %5, align 8
  %115 = and i64 %114, -141863388262170625
  %116 = or i64 %115, 0
  store i64 %116, ptr %5, align 8
  %117 = load i64, ptr %5, align 8
  %118 = and i64 %117, -9079256848778919937
  %119 = or i64 %118, 0
  store i64 %119, ptr %5, align 8
  %120 = load i64, ptr %5, align 8
  %121 = and i64 %120, 9223372036854775807
  %122 = or i64 %121, -9223372036854775808
  store i64 %122, ptr %5, align 8
  %123 = getelementptr inbounds nuw %"struct.clang::CXXRecordDecl::DefinitionData", ptr %5, i32 0, i32 1
  %124 = load i32, ptr %123, align 8
  %125 = and i32 %124, -2
  %126 = or i32 %125, 0
  store i32 %126, ptr %123, align 8
  %127 = getelementptr inbounds nuw %"struct.clang::CXXRecordDecl::DefinitionData", ptr %5, i32 0, i32 1
  %128 = load i32, ptr %127, align 8
  %129 = and i32 %128, -3
  %130 = or i32 %129, 0
  store i32 %130, ptr %127, align 8
  %131 = getelementptr inbounds nuw %"struct.clang::CXXRecordDecl::DefinitionData", ptr %5, i32 0, i32 1
  %132 = load i32, ptr %131, align 8
  %133 = and i32 %132, -5
  %134 = or i32 %133, 4
  store i32 %134, ptr %131, align 8
  %135 = getelementptr inbounds nuw %"struct.clang::CXXRecordDecl::DefinitionData", ptr %5, i32 0, i32 1
  %136 = load i32, ptr %135, align 8
  %137 = and i32 %136, -9
  %138 = or i32 %137, 0
  store i32 %138, ptr %135, align 8
  %139 = getelementptr inbounds nuw %"struct.clang::CXXRecordDecl::DefinitionData", ptr %5, i32 0, i32 1
  %140 = load i32, ptr %139, align 8
  %141 = and i32 %140, -17
  %142 = or i32 %141, 16
  store i32 %142, ptr %139, align 8
  %143 = getelementptr inbounds nuw %"struct.clang::CXXRecordDecl::DefinitionData", ptr %5, i32 0, i32 1
  %144 = load i32, ptr %143, align 8
  %145 = and i32 %144, -33
  %146 = or i32 %145, 0
  store i32 %146, ptr %143, align 8
  %147 = getelementptr inbounds nuw %"struct.clang::CXXRecordDecl::DefinitionData", ptr %5, i32 0, i32 1
  %148 = load i32, ptr %147, align 8
  %149 = and i32 %148, -65
  %150 = or i32 %149, 64
  store i32 %150, ptr %147, align 8
  %151 = getelementptr inbounds nuw %"struct.clang::CXXRecordDecl::DefinitionData", ptr %5, i32 0, i32 1
  %152 = load i32, ptr %151, align 8
  %153 = and i32 %152, -129
  %154 = or i32 %153, 0
  store i32 %154, ptr %151, align 8
  %155 = getelementptr inbounds nuw %"struct.clang::CXXRecordDecl::DefinitionData", ptr %5, i32 0, i32 1
  %156 = load i32, ptr %155, align 8
  %157 = and i32 %156, -16129
  %158 = or i32 %157, 0
  store i32 %158, ptr %155, align 8
  %159 = getelementptr inbounds nuw %"struct.clang::CXXRecordDecl::DefinitionData", ptr %5, i32 0, i32 1
  %160 = load i32, ptr %159, align 8
  %161 = and i32 %160, -16385
  %162 = or i32 %161, 16384
  store i32 %162, ptr %159, align 8
  %163 = getelementptr inbounds nuw %"struct.clang::CXXRecordDecl::DefinitionData", ptr %5, i32 0, i32 1
  %164 = load i32, ptr %163, align 8
  %165 = and i32 %164, -32769
  %166 = or i32 %165, 32768
  store i32 %166, ptr %163, align 8
  %167 = getelementptr inbounds nuw %"struct.clang::CXXRecordDecl::DefinitionData", ptr %5, i32 0, i32 1
  %168 = load i32, ptr %167, align 8
  %169 = and i32 %168, -65537
  %170 = or i32 %169, 65536
  store i32 %170, ptr %167, align 8
  %171 = getelementptr inbounds nuw %"struct.clang::CXXRecordDecl::DefinitionData", ptr %5, i32 0, i32 1
  %172 = load i32, ptr %171, align 8
  %173 = and i32 %172, -131073
  %174 = or i32 %173, 0
  store i32 %174, ptr %171, align 8
  %175 = getelementptr inbounds nuw %"struct.clang::CXXRecordDecl::DefinitionData", ptr %5, i32 0, i32 1
  %176 = load i32, ptr %175, align 8
  %177 = and i32 %176, -262145
  %178 = or i32 %177, 0
  store i32 %178, ptr %175, align 8
  %179 = getelementptr inbounds nuw %"struct.clang::CXXRecordDecl::DefinitionData", ptr %5, i32 0, i32 1
  %180 = load i32, ptr %179, align 8
  %181 = and i32 %180, -524289
  %182 = or i32 %181, 0
  store i32 %182, ptr %179, align 8
  %183 = getelementptr inbounds nuw %"struct.clang::CXXRecordDecl::DefinitionData", ptr %5, i32 0, i32 1
  %184 = load i32, ptr %183, align 8
  %185 = and i32 %184, -1048577
  %186 = or i32 %185, 0
  store i32 %186, ptr %183, align 8
  %187 = getelementptr inbounds nuw %"struct.clang::CXXRecordDecl::DefinitionData", ptr %5, i32 0, i32 1
  %188 = load i32, ptr %187, align 8
  %189 = and i32 %188, -2097153
  %190 = or i32 %189, 0
  store i32 %190, ptr %187, align 8
  %191 = getelementptr inbounds nuw %"struct.clang::CXXRecordDecl::DefinitionData", ptr %5, i32 0, i32 1
  %192 = load i32, ptr %191, align 8
  %193 = and i32 %192, -4194305
  %194 = or i32 %193, 0
  store i32 %194, ptr %191, align 8
  %195 = getelementptr inbounds nuw %"struct.clang::CXXRecordDecl::DefinitionData", ptr %5, i32 0, i32 1
  %196 = load i32, ptr %195, align 8
  %197 = and i32 %196, -8388609
  %198 = or i32 %197, 0
  store i32 %198, ptr %195, align 8
  %199 = getelementptr inbounds nuw %"struct.clang::CXXRecordDecl::DefinitionData", ptr %5, i32 0, i32 2
  store i32 0, ptr %199, align 4
  %200 = getelementptr inbounds nuw %"struct.clang::CXXRecordDecl::DefinitionData", ptr %5, i32 0, i32 3
  store i32 0, ptr %200, align 8
  %201 = getelementptr inbounds nuw %"struct.clang::CXXRecordDecl::DefinitionData", ptr %5, i32 0, i32 4
  store i32 0, ptr %201, align 4
  %202 = getelementptr inbounds nuw %"struct.clang::CXXRecordDecl::DefinitionData", ptr %5, i32 0, i32 5
  call void @_ZN5clang13LazyOffsetPtrINS_16CXXBaseSpecifierEmXadL_ZNS_17ExternalASTSource28GetExternalCXXBaseSpecifiersEmEEEC2Ev(ptr noundef nonnull align 8 dereferenceable(8) %202) #11
  %203 = getelementptr inbounds nuw %"struct.clang::CXXRecordDecl::DefinitionData", ptr %5, i32 0, i32 6
  call void @_ZN5clang13LazyOffsetPtrINS_16CXXBaseSpecifierEmXadL_ZNS_17ExternalASTSource28GetExternalCXXBaseSpecifiersEmEEEC2Ev(ptr noundef nonnull align 8 dereferenceable(8) %203) #11
  %204 = getelementptr inbounds nuw %"struct.clang::CXXRecordDecl::DefinitionData", ptr %5, i32 0, i32 7
  call void @_ZN5clang20LazyASTUnresolvedSetC2Ev(ptr noundef nonnull align 8 dereferenceable(24) %204)
  %205 = getelementptr inbounds nuw %"struct.clang::CXXRecordDecl::DefinitionData", ptr %5, i32 0, i32 8
  call void @_ZN5clang20LazyASTUnresolvedSetC2Ev(ptr noundef nonnull align 8 dereferenceable(24) %205)
  %206 = getelementptr inbounds nuw %"struct.clang::CXXRecordDecl::DefinitionData", ptr %5, i32 0, i32 9
  %207 = load ptr, ptr %4, align 8
  store ptr %207, ptr %206, align 8
  %208 = getelementptr inbounds nuw %"struct.clang::CXXRecordDecl::DefinitionData", ptr %5, i32 0, i32 10
  call void @_ZN5clang13LazyOffsetPtrINS_4DeclENS_12GlobalDeclIDEXadL_ZNS_17ExternalASTSource15GetExternalDeclES2_EEEC2Ev(ptr noundef nonnull align 8 dereferenceable(8) %208) #11
  ret void
}