; Function Attrs: mustprogress nofree norecurse nosync nounwind willreturn memory(argmem: readwrite) uwtable
define dso_local void @_ZN5clang13CXXRecordDecl14DefinitionDataC2EPS0_(ptr noundef nonnull align 8 captures(none) dereferenceable(104) initializes((0, 8), (12, 104)) %0, ptr noundef %1) unnamed_addr #4 align 2 {
  store i64 -9221120786794794112, ptr %0, align 8
  %3 = getelementptr inbounds nuw i8, ptr %0, i64 8
  %4 = load i32, ptr %3, align 8
  %5 = and i32 %4, -16777216
  %6 = or disjoint i32 %5, 114772
  store i32 %6, ptr %3, align 8
  %7 = getelementptr inbounds nuw i8, ptr %0, i64 12
  %8 = getelementptr inbounds nuw i8, ptr %0, i64 88
  tail call void @llvm.memset.p0.i64(ptr noundef nonnull align 4 dereferenceable(76) %7, i8 0, i64 76, i1 false)
  store ptr %1, ptr %8, align 8
  %9 = getelementptr inbounds nuw i8, ptr %0, i64 96
  store i64 0, ptr %9, align 8
  ret void
}